; ModuleID = '38/96.c'
source_filename = "38/96.c"
target datalayout = "e-m:e-p270:32:32-p271:32:32-p272:64:64-i64:64-f80:128-n8:16:32:64-S128"
target triple = "x86_64-pc-linux-gnu"

@.str = private unnamed_addr constant [3 x i8] c"%d\00", align 1
@.str.1 = private unnamed_addr constant [4 x i8] c"%lf\00", align 1
@.str.2 = private unnamed_addr constant [7 x i8] c"%.5lf\0A\00", align 1

; Function Attrs: noinline nounwind uwtable
define dso_local i32 @main() #0 {
  %1 = alloca i32, align 4
  %2 = alloca i32, align 4
  %3 = alloca i32, align 4
  %4 = alloca [1000 x i32], align 16
  %5 = alloca i32, align 4
  %6 = alloca i32, align 4
  %7 = alloca [1000 x double], align 16
  %8 = alloca double, align 8
  %9 = alloca double, align 8
  %10 = alloca double, align 8
  %11 = alloca double, align 8
  store i32 0, i32* %1, align 4
  %12 = call i32 (i8*, ...) @__isoc99_scanf(i8* getelementptr inbounds ([3 x i8], [3 x i8]* @.str, i64 0, i64 0), i32* %2)
  store double 0.000000e+00, double* %8, align 8
  store double 0.000000e+00, double* %10, align 8
  store i32 1, i32* %3, align 4
  br label %13

13:                                               ; preds = %97, %0
  %14 = load i32, i32* %3, align 4
  %15 = load i32, i32* %2, align 4
  %16 = icmp sle i32 %14, %15
  br i1 %16, label %17, label %100

17:                                               ; preds = %13
  %18 = getelementptr inbounds [1000 x i32], [1000 x i32]* %4, i64 0, i64 0
  %19 = load i32, i32* %3, align 4
  %20 = sext i32 %19 to i64
  %21 = getelementptr inbounds i32, i32* %18, i64 %20
  %22 = call i32 (i8*, ...) @__isoc99_scanf(i8* getelementptr inbounds ([3 x i8], [3 x i8]* @.str, i64 0, i64 0), i32* %21)
  store i32 1, i32* %5, align 4
  br label %23

23:                                               ; preds = %44, %17
  %24 = load i32, i32* %5, align 4
  %25 = getelementptr inbounds [1000 x i32], [1000 x i32]* %4, i64 0, i64 0
  %26 = load i32, i32* %3, align 4
  %27 = sext i32 %26 to i64
  %28 = getelementptr inbounds i32, i32* %25, i64 %27
  %29 = load i32, i32* %28, align 4
  %30 = icmp sle i32 %24, %29
  br i1 %30, label %31, label %47

31:                                               ; preds = %23
  %32 = getelementptr inbounds [1000 x double], [1000 x double]* %7, i64 0, i64 0
  %33 = load i32, i32* %5, align 4
  %34 = sext i32 %33 to i64
  %35 = getelementptr inbounds double, double* %32, i64 %34
  %36 = call i32 (i8*, ...) @__isoc99_scanf(i8* getelementptr inbounds ([4 x i8], [4 x i8]* @.str.1, i64 0, i64 0), double* %35)
  %37 = load double, double* %8, align 8
  %38 = getelementptr inbounds [1000 x double], [1000 x double]* %7, i64 0, i64 0
  %39 = load i32, i32* %5, align 4
  %40 = sext i32 %39 to i64
  %41 = getelementptr inbounds double, double* %38, i64 %40
  %42 = load double, double* %41, align 8
  %43 = fadd double %37, %42
  store double %43, double* %8, align 8
  br label %44

44:                                               ; preds = %31
  %45 = load i32, i32* %5, align 4
  %46 = add nsw i32 %45, 1
  store i32 %46, i32* %5, align 4
  br label %23

47:                                               ; preds = %23
  %48 = load double, double* %8, align 8
  %49 = getelementptr inbounds [1000 x i32], [1000 x i32]* %4, i64 0, i64 0
  %50 = load i32, i32* %3, align 4
  %51 = sext i32 %50 to i64
  %52 = getelementptr inbounds i32, i32* %49, i64 %51
  %53 = load i32, i32* %52, align 4
  %54 = sitofp i32 %53 to double
  %55 = fdiv double %48, %54
  store double %55, double* %9, align 8
  store i32 1, i32* %6, align 4
  br label %56

56:                                               ; preds = %82, %47
  %57 = load i32, i32* %6, align 4
  %58 = getelementptr inbounds [1000 x i32], [1000 x i32]* %4, i64 0, i64 0
  %59 = load i32, i32* %3, align 4
  %60 = sext i32 %59 to i64
  %61 = getelementptr inbounds i32, i32* %58, i64 %60
  %62 = load i32, i32* %61, align 4
  %63 = icmp sle i32 %57, %62
  br i1 %63, label %64, label %85

64:                                               ; preds = %56
  %65 = load double, double* %10, align 8
  %66 = load double, double* %9, align 8
  %67 = getelementptr inbounds [1000 x double], [1000 x double]* %7, i64 0, i64 0
  %68 = load i32, i32* %6, align 4
  %69 = sext i32 %68 to i64
  %70 = getelementptr inbounds double, double* %67, i64 %69
  %71 = load double, double* %70, align 8
  %72 = fsub double %66, %71
  %73 = load double, double* %9, align 8
  %74 = getelementptr inbounds [1000 x double], [1000 x double]* %7, i64 0, i64 0
  %75 = load i32, i32* %6, align 4
  %76 = sext i32 %75 to i64
  %77 = getelementptr inbounds double, double* %74, i64 %76
  %78 = load double, double* %77, align 8
  %79 = fsub double %73, %78
  %80 = fmul double %72, %79
  %81 = fadd double %65, %80
  store double %81, double* %10, align 8
  br label %82

82:                                               ; preds = %64
  %83 = load i32, i32* %6, align 4
  %84 = add nsw i32 %83, 1
  store i32 %84, i32* %6, align 4
  br label %56

85:                                               ; preds = %56
  %86 = load double, double* %10, align 8
  %87 = getelementptr inbounds [1000 x i32], [1000 x i32]* %4, i64 0, i64 0
  %88 = load i32, i32* %3, align 4
  %89 = sext i32 %88 to i64
  %90 = getelementptr inbounds i32, i32* %87, i64 %89
  %91 = load i32, i32* %90, align 4
  %92 = sitofp i32 %91 to double
  %93 = fdiv double %86, %92
  %94 = call double @sqrt(double %93) #3
  store double %94, double* %11, align 8
  %95 = load double, double* %11, align 8
  %96 = call i32 (i8*, ...) @printf(i8* getelementptr inbounds ([7 x i8], [7 x i8]* @.str.2, i64 0, i64 0), double %95)
  store double 0.000000e+00, double* %8, align 8
  store double 0.000000e+00, double* %10, align 8
  br label %97

97:                                               ; preds = %85
  %98 = load i32, i32* %3, align 4
  %99 = add nsw i32 %98, 1
  store i32 %99, i32* %3, align 4
  br label %13

100:                                              ; preds = %13
  ret i32 0
}

declare dso_local i32 @__isoc99_scanf(i8*, ...) #1

; Function Attrs: nounwind
declare dso_local double @sqrt(double) #2

declare dso_local i32 @printf(i8*, ...) #1


!llvm.module.flags = !{!0}
!llvm.ident = !{!1}

!0 = !{i32 1, !"wchar_size", i32 4}
!1 = !{!"clang version 10.0.0-4ubuntu1 "}
