; ModuleID = 'source-C-CXX/37/96.c'
source_filename = "source-C-CXX/37/96.c"
target datalayout = "e-m:e-p270:32:32-p271:32:32-p272:64:64-i64:64-f80:128-n8:16:32:64-S128"
target triple = "x86_64-pc-linux-gnu"

@.str = private unnamed_addr constant [3 x i8] c"%d\00", align 1
@.str.1 = private unnamed_addr constant [4 x i8] c"%lf\00", align 1
@.str.2 = private unnamed_addr constant [7 x i8] c"%.5lf\0A\00", align 1

; Function Attrs: nofree nounwind sspstrong uwtable
define dso_local i32 @main() local_unnamed_addr #0 {
  %1 = alloca i32, align 4
  %2 = alloca [1000 x i32], align 16
  %3 = alloca [1000 x double], align 16
  %4 = bitcast i32* %1 to i8*
  call void @llvm.lifetime.start.p0i8(i64 4, i8* nonnull %4) #4
  %5 = call i32 (i8*, ...) @__isoc99_scanf(i8* getelementptr inbounds ([3 x i8], [3 x i8]* @.str, i64 0, i64 0), i32* nonnull %1)
  %6 = bitcast [1000 x i32]* %2 to i8*
  call void @llvm.lifetime.start.p0i8(i64 4000, i8* nonnull %6) #4
  %7 = bitcast [1000 x double]* %3 to i8*
  call void @llvm.lifetime.start.p0i8(i64 8000, i8* nonnull %7) #4
  %8 = load i32, i32* %1, align 4, !tbaa !5
  %9 = icmp slt i32 %8, 1
  br i1 %9, label %99, label %10

10:                                               ; preds = %0, %89
  %11 = phi i64 [ %95, %89 ], [ 1, %0 ]
  %12 = getelementptr inbounds [1000 x i32], [1000 x i32]* %2, i64 0, i64 %11
  %13 = call i32 (i8*, ...) @__isoc99_scanf(i8* getelementptr inbounds ([3 x i8], [3 x i8]* @.str, i64 0, i64 0), i32* nonnull %12)
  %14 = load i32, i32* %12, align 4, !tbaa !5
  %15 = icmp slt i32 %14, 1
  br i1 %15, label %16, label %18

16:                                               ; preds = %10
  %17 = sitofp i32 %14 to double
  br label %89

18:                                               ; preds = %10, %18
  %19 = phi i64 [ %25, %18 ], [ 1, %10 ]
  %20 = phi double [ %24, %18 ], [ 0.000000e+00, %10 ]
  %21 = getelementptr inbounds [1000 x double], [1000 x double]* %3, i64 0, i64 %19
  %22 = call i32 (i8*, ...) @__isoc99_scanf(i8* getelementptr inbounds ([4 x i8], [4 x i8]* @.str.1, i64 0, i64 0), double* nonnull %21)
  %23 = load double, double* %21, align 8, !tbaa !9
  %24 = fadd double %20, %23
  %25 = add nuw nsw i64 %19, 1
  %26 = load i32, i32* %12, align 4, !tbaa !5
  %27 = sext i32 %26 to i64
  %28 = icmp slt i64 %19, %27
  br i1 %28, label %18, label %29, !llvm.loop !11

29:                                               ; preds = %18
  %30 = sitofp i32 %26 to double
  %31 = fdiv double %24, %30
  %32 = icmp slt i32 %26, 1
  br i1 %32, label %89, label %33

33:                                               ; preds = %29
  %34 = add nuw i32 %26, 1
  %35 = zext i32 %34 to i64
  %36 = add nsw i64 %35, -1
  %37 = add nsw i64 %35, -2
  %38 = and i64 %36, 3
  %39 = icmp ult i64 %37, 3
  br i1 %39, label %72, label %40

40:                                               ; preds = %33
  %41 = and i64 %36, -4
  br label %42

42:                                               ; preds = %42, %40
  %43 = phi i64 [ 1, %40 ], [ %69, %42 ]
  %44 = phi double [ 0.000000e+00, %40 ], [ %68, %42 ]
  %45 = phi i64 [ %41, %40 ], [ %70, %42 ]
  %46 = getelementptr inbounds [1000 x double], [1000 x double]* %3, i64 0, i64 %43
  %47 = load double, double* %46, align 8, !tbaa !9
  %48 = fsub double %31, %47
  %49 = fmul double %48, %48
  %50 = fadd double %44, %49
  %51 = add nuw nsw i64 %43, 1
  %52 = getelementptr inbounds [1000 x double], [1000 x double]* %3, i64 0, i64 %51
  %53 = load double, double* %52, align 8, !tbaa !9
  %54 = fsub double %31, %53
  %55 = fmul double %54, %54
  %56 = fadd double %50, %55
  %57 = add nuw nsw i64 %43, 2
  %58 = getelementptr inbounds [1000 x double], [1000 x double]* %3, i64 0, i64 %57
  %59 = load double, double* %58, align 8, !tbaa !9
  %60 = fsub double %31, %59
  %61 = fmul double %60, %60
  %62 = fadd double %56, %61
  %63 = add nuw nsw i64 %43, 3
  %64 = getelementptr inbounds [1000 x double], [1000 x double]* %3, i64 0, i64 %63
  %65 = load double, double* %64, align 8, !tbaa !9
  %66 = fsub double %31, %65
  %67 = fmul double %66, %66
  %68 = fadd double %62, %67
  %69 = add nuw nsw i64 %43, 4
  %70 = add i64 %45, -4
  %71 = icmp eq i64 %70, 0
  br i1 %71, label %72, label %42, !llvm.loop !13

72:                                               ; preds = %42, %33
  %73 = phi double [ undef, %33 ], [ %68, %42 ]
  %74 = phi i64 [ 1, %33 ], [ %69, %42 ]
  %75 = phi double [ 0.000000e+00, %33 ], [ %68, %42 ]
  %76 = icmp eq i64 %38, 0
  br i1 %76, label %89, label %77

77:                                               ; preds = %72, %77
  %78 = phi i64 [ %86, %77 ], [ %74, %72 ]
  %79 = phi double [ %85, %77 ], [ %75, %72 ]
  %80 = phi i64 [ %87, %77 ], [ %38, %72 ]
  %81 = getelementptr inbounds [1000 x double], [1000 x double]* %3, i64 0, i64 %78
  %82 = load double, double* %81, align 8, !tbaa !9
  %83 = fsub double %31, %82
  %84 = fmul double %83, %83
  %85 = fadd double %79, %84
  %86 = add nuw nsw i64 %78, 1
  %87 = add i64 %80, -1
  %88 = icmp eq i64 %87, 0
  br i1 %88, label %89, label %77, !llvm.loop !14

89:                                               ; preds = %72, %77, %16, %29
  %90 = phi double [ %30, %29 ], [ %17, %16 ], [ %30, %77 ], [ %30, %72 ]
  %91 = phi double [ 0.000000e+00, %29 ], [ 0.000000e+00, %16 ], [ %73, %72 ], [ %85, %77 ]
  %92 = fdiv double %91, %90
  %93 = call double @sqrt(double %92) #4
  %94 = call i32 (i8*, ...) @printf(i8* nonnull dereferenceable(1) getelementptr inbounds ([7 x i8], [7 x i8]* @.str.2, i64 0, i64 0), double %93)
  %95 = add nuw nsw i64 %11, 1
  %96 = load i32, i32* %1, align 4, !tbaa !5
  %97 = sext i32 %96 to i64
  %98 = icmp slt i64 %11, %97
  br i1 %98, label %10, label %99, !llvm.loop !16

99:                                               ; preds = %89, %0
  call void @llvm.lifetime.end.p0i8(i64 8000, i8* nonnull %7) #4
  call void @llvm.lifetime.end.p0i8(i64 4000, i8* nonnull %6) #4
  call void @llvm.lifetime.end.p0i8(i64 4, i8* nonnull %4) #4
  ret i32 0
}

; Function Attrs: argmemonly mustprogress nofree nosync nounwind willreturn
declare void @llvm.lifetime.start.p0i8(i64 immarg, i8* nocapture) #1

; Function Attrs: nofree nounwind
declare noundef i32 @__isoc99_scanf(i8* nocapture noundef readonly, ...) local_unnamed_addr #2

; Function Attrs: mustprogress nofree nounwind willreturn
declare double @sqrt(double) local_unnamed_addr #3

; Function Attrs: nofree nounwind
declare noundef i32 @printf(i8* nocapture noundef readonly, ...) local_unnamed_addr #2

; Function Attrs: argmemonly mustprogress nofree nosync nounwind willreturn
declare void @llvm.lifetime.end.p0i8(i64 immarg, i8* nocapture) #1


!llvm.module.flags = !{!0, !1, !2, !3}
!llvm.ident = !{!4}

!0 = !{i32 1, !"wchar_size", i32 4}
!1 = !{i32 7, !"PIC Level", i32 2}
!2 = !{i32 7, !"PIE Level", i32 2}
!3 = !{i32 7, !"uwtable", i32 1}
!4 = !{!"clang version 13.0.0"}
!5 = !{!6, !6, i64 0}
!6 = !{!"int", !7, i64 0}
!7 = !{!"omnipotent char", !8, i64 0}
!8 = !{!"Simple C/C++ TBAA"}
!9 = !{!10, !10, i64 0}
!10 = !{!"double", !7, i64 0}
!11 = distinct !{!11, !12}
!12 = !{!"llvm.loop.mustprogress"}
!13 = distinct !{!13, !12}
!14 = distinct !{!14, !15}
!15 = !{!"llvm.loop.unroll.disable"}
!16 = distinct !{!16, !12}
